target datalayout = "e-m:e-p270:32:32-p271:32:32-p272:64:64-i64:64-i128:128-f80:128-n8:16:32:64-S128"
target triple = "x86_64-pc-linux-gnu"

%class.QByteArray = type { %struct.QArrayDataPointer }
%struct.QArrayDataPointer = type { ptr, ptr, i64 }
%class.QAbstractItemModel = type { %class.QObject }
%class.QObject = type { ptr, %class.QScopedPointer }
%class.QScopedPointer = type { ptr }
%class.ManufSortFilterProxyModel = type { %class.QSortFilterProxyModel, i32, %class.QByteArray, %class.QRegularExpression }
%class.QSortFilterProxyModel = type { %class.QAbstractProxyModel }
%class.QAbstractProxyModel = type { %class.QAbstractItemModel }
%class.QRegularExpression = type { %class.QExplicitlySharedDataPointer }
%class.QExplicitlySharedDataPointer = type { ptr }

@.str = private unnamed_addr constant [1 x i8] zeroinitializer, align 1
@.str.1 = private unnamed_addr constant [35 x i8] c"ui/qt/models/manuf_table_model.cpp\00", align 1
@__func__._ZNK25ManufSortFilterProxyModel16filterAcceptsRowEiRK11QModelIndex = private unnamed_addr constant [17 x i8] c"filterAcceptsRow\00", align 1
@.str.6 = private unnamed_addr constant [23 x i8] c"unknown filter type %d\00", align 1

; Function Attrs: mustprogress uwtable
define noundef zeroext i1 @_ZNK25ManufSortFilterProxyModel16filterAcceptsRowEiRK11QModelIndex(ptr noundef nonnull align 8 dereferenceable(56) %0, i32 noundef %1, ptr noundef nonnull align 8 dereferenceable(24) %2) unnamed_addr #0 align 2 {
  %4 = alloca i1, align 1
  %5 = alloca ptr, align 8
  %6 = alloca i32, align 4
  %7 = alloca ptr, align 8
  store ptr %0, ptr %5, align 8
  store i32 %1, ptr %6, align 4
  store ptr %2, ptr %7, align 8
  %8 = load ptr, ptr %5, align 8
  %9 = getelementptr inbounds %class.ManufSortFilterProxyModel, ptr %8, i32 0, i32 1
  %10 = load i32, ptr %9, align 8
  switch i32 %10, label %20 [
    i32 0, label %11
    i32 1, label %12
    i32 2, label %16
  ]

11:                                               ; preds = %3
  store i1 true, ptr %4, align 1
  br label %23

12:                                               ; preds = %3
  %13 = load i32, ptr %6, align 4
  %14 = load ptr, ptr %7, align 8
  %15 = call noundef zeroext i1 @_ZNK25ManufSortFilterProxyModel23filterAddressAcceptsRowEiRK11QModelIndex(ptr noundef nonnull align 8 dereferenceable(56) %8, i32 noundef %13, ptr noundef nonnull align 8 dereferenceable(24) %14)
  store i1 %15, ptr %4, align 1
  br label %23

16:                                               ; preds = %3
  %17 = load i32, ptr %6, align 4
  %18 = load ptr, ptr %7, align 8
  %19 = call noundef zeroext i1 @_ZNK25ManufSortFilterProxyModel20filterNameAcceptsRowEiRK11QModelIndex(ptr noundef nonnull align 8 dereferenceable(56) %8, i32 noundef %17, ptr noundef nonnull align 8 dereferenceable(24) %18)
  store i1 %19, ptr %4, align 1
  br label %23

20:                                               ; preds = %3
  %21 = getelementptr inbounds %class.ManufSortFilterProxyModel, ptr %8, i32 0, i32 1
  %22 = load i32, ptr %21, align 8
  call void (ptr, i32, ptr, i64, ptr, ptr, ...) @ws_log_fatal_full(ptr noundef @.str, i32 noundef 7, ptr noundef @.str.1, i64 noundef 219, ptr noundef @__func__._ZNK25ManufSortFilterProxyModel16filterAcceptsRowEiRK11QModelIndex, ptr noundef @.str.6, i32 noundef %22) #13
  unreachable

23:                                               ; preds = %16, %12, %11
  %24 = load i1, ptr %4, align 1
  ret i1 %24
}