; Function Attrs: mustprogress uwtable
define noundef zeroext i1 @_ZNK25ManufSortFilterProxyModel16filterAcceptsRowEiRK11QModelIndex(ptr noundef nonnull align 8 dereferenceable(56) %0, i32 noundef %1, ptr noundef nonnull align 8 dereferenceable(24) %2) unnamed_addr #0 align 2 {
  %4 = getelementptr inbounds i8, ptr %0, i64 16
  %5 = load i32, ptr %4, align 8
  switch i32 %5, label %10 [
    i32 0, label %11
    i32 1, label %6
    i32 2, label %8
  ]

6:                                                ; preds = %3
  %7 = tail call noundef zeroext i1 @_ZNK25ManufSortFilterProxyModel23filterAddressAcceptsRowEiRK11QModelIndex(ptr noundef nonnull align 8 dereferenceable(56) %0, i32 noundef %1, ptr noundef nonnull align 8 dereferenceable(24) %2)
  br label %11

8:                                                ; preds = %3
  %9 = tail call noundef zeroext i1 @_ZNK25ManufSortFilterProxyModel20filterNameAcceptsRowEiRK11QModelIndex(ptr noundef nonnull align 8 dereferenceable(56) %0, i32 noundef %1, ptr noundef nonnull align 8 dereferenceable(24) %2)
  br label %11

10:                                               ; preds = %3
  tail call void (ptr, i32, ptr, i64, ptr, ptr, ...) @ws_log_fatal_full(ptr noundef nonnull @.str, i32 noundef 7, ptr noundef nonnull @.str.1, i64 noundef 219, ptr noundef nonnull @__func__._ZNK25ManufSortFilterProxyModel16filterAcceptsRowEiRK11QModelIndex, ptr noundef nonnull @.str.6, i32 noundef %5) #20
  unreachable

11:                                               ; preds = %3, %8, %6
  %.0 = phi i1 [ %9, %8 ], [ %7, %6 ], [ true, %3 ]
  ret i1 %.0
}